; Function Attrs: nounwind uwtable
define hidden ptr @_PyAST_ImportFrom(ptr noundef %0, ptr noundef %1, i32 noundef %2, i32 noundef %3, i32 noundef %4, i32 noundef %5, i32 noundef %6, ptr noundef %7) local_unnamed_addr #0 {
  %9 = tail call ptr @_PyArena_Malloc(ptr noundef %7, i64 noundef 80) #8
  %.not = icmp eq ptr %9, null
  br i1 %.not, label %18, label %10

10:                                               ; preds = %8
  store i32 22, ptr %9, align 8, !tbaa !20
  %11 = getelementptr inbounds nuw i8, ptr %9, i64 8
  store ptr %0, ptr %11, align 8, !tbaa !9
  %12 = getelementptr inbounds nuw i8, ptr %9, i64 16
  store ptr %1, ptr %12, align 8, !tbaa !9
  %13 = getelementptr inbounds nuw i8, ptr %9, i64 24
  store i32 %2, ptr %13, align 8, !tbaa !9
  %14 = getelementptr inbounds nuw i8, ptr %9, i64 64
  store i32 %3, ptr %14, align 8, !tbaa !22
  %15 = getelementptr inbounds nuw i8, ptr %9, i64 68
  store i32 %4, ptr %15, align 4, !tbaa !23
  %16 = getelementptr inbounds nuw i8, ptr %9, i64 72
  store i32 %5, ptr %16, align 8, !tbaa !24
  %17 = getelementptr inbounds nuw i8, ptr %9, i64 76
  store i32 %6, ptr %17, align 4, !tbaa !25
  br label %18

18:                                               ; preds = %8, %10
  ret ptr %9
}